target datalayout = "e-m:e-p270:32:32-p271:32:32-p272:64:64-i64:64-i128:128-f80:128-n8:16:32:64-S128"
target triple = "x86_64-pc-linux-gnu"

%struct.SurfaceDataRasInfo = type { %struct.SurfaceDataBounds, ptr, i32, i32, i32, i32, ptr, ptr, ptr, ptr, ptr, ptr, i32, %union.anon.0 }
%struct.SurfaceDataBounds = type { i32, i32, i32, i32 }
%union.anon.0 = type { ptr, [56 x i8] }

@mul8table = external global [256 x [256 x i8]], align 16
@div8table = external global [256 x [256 x i8]], align 16

; Function Attrs: nounwind uwtable
define hidden void @IntRgbxSrcMaskFill(ptr noundef %0, ptr noundef %1, i32 noundef %2, i32 noundef %3, i32 noundef %4, i32 noundef %5, i32 noundef %6, ptr noundef %7, ptr noundef %8, ptr noundef %9) #1 {
  %11 = alloca ptr, align 8
  %12 = alloca ptr, align 8
  %13 = alloca i32, align 4
  %14 = alloca i32, align 4
  %15 = alloca i32, align 4
  %16 = alloca i32, align 4
  %17 = alloca i32, align 4
  %18 = alloca ptr, align 8
  %19 = alloca ptr, align 8
  %20 = alloca ptr, align 8
  %21 = alloca i32, align 4
  %22 = alloca i32, align 4
  %23 = alloca i32, align 4
  %24 = alloca i32, align 4
  %25 = alloca i32, align 4
  %26 = alloca ptr, align 8
  %27 = alloca i32, align 4
  %28 = alloca i32, align 4
  %29 = alloca i32, align 4
  %30 = alloca i32, align 4
  %31 = alloca i32, align 4
  %32 = alloca i32, align 4
  %33 = alloca i32, align 4
  %34 = alloca i32, align 4
  %35 = alloca i32, align 4
  store ptr %0, ptr %11, align 8
  store ptr %1, ptr %12, align 8
  store i32 %2, ptr %13, align 4
  store i32 %3, ptr %14, align 4
  store i32 %4, ptr %15, align 4
  store i32 %5, ptr %16, align 4
  store i32 %6, ptr %17, align 4
  store ptr %7, ptr %18, align 8
  store ptr %8, ptr %19, align 8
  store ptr %9, ptr %20, align 8
  %36 = load ptr, ptr %18, align 8
  %37 = getelementptr inbounds %struct.SurfaceDataRasInfo, ptr %36, i32 0, i32 4
  %38 = load i32, ptr %37, align 8
  store i32 %38, ptr %25, align 4
  %39 = load ptr, ptr %11, align 8
  store ptr %39, ptr %26, align 8
  br label %40

40:                                               ; preds = %10
  %41 = load i32, ptr %17, align 4
  %42 = and i32 %41, 255
  store i32 %42, ptr %24, align 4
  %43 = load i32, ptr %17, align 4
  %44 = ashr i32 %43, 8
  %45 = and i32 %44, 255
  store i32 %45, ptr %23, align 4
  %46 = load i32, ptr %17, align 4
  %47 = ashr i32 %46, 16
  %48 = and i32 %47, 255
  store i32 %48, ptr %22, align 4
  %49 = load i32, ptr %17, align 4
  %50 = ashr i32 %49, 24
  %51 = and i32 %50, 255
  store i32 %51, ptr %21, align 4
  br label %52

52:                                               ; preds = %40
  %53 = load i32, ptr %21, align 4
  %54 = icmp eq i32 %53, 0
  br i1 %54, label %55, label %56

55:                                               ; preds = %52
  store i32 0, ptr %24, align 4
  store i32 0, ptr %23, align 4
  store i32 0, ptr %22, align 4
  store i32 0, ptr %17, align 4
  br label %87

56:                                               ; preds = %52
  %57 = load i32, ptr %21, align 4
  %58 = icmp ne i32 %57, 255
  br i1 %58, label %59, label %86

59:                                               ; preds = %56
  br label %60

60:                                               ; preds = %59
  %61 = load i32, ptr %21, align 4
  %62 = sext i32 %61 to i64
  %63 = getelementptr inbounds [256 x [256 x i8]], ptr @mul8table, i64 0, i64 %62
  %64 = load i32, ptr %22, align 4
  %65 = sext i32 %64 to i64
  %66 = getelementptr inbounds [256 x i8], ptr %63, i64 0, i64 %65
  %67 = load i8, ptr %66, align 1
  %68 = zext i8 %67 to i32
  store i32 %68, ptr %22, align 4
  %69 = load i32, ptr %21, align 4
  %70 = sext i32 %69 to i64
  %71 = getelementptr inbounds [256 x [256 x i8]], ptr @mul8table, i64 0, i64 %70
  %72 = load i32, ptr %23, align 4
  %73 = sext i32 %72 to i64
  %74 = getelementptr inbounds [256 x i8], ptr %71, i64 0, i64 %73
  %75 = load i8, ptr %74, align 1
  %76 = zext i8 %75 to i32
  store i32 %76, ptr %23, align 4
  %77 = load i32, ptr %21, align 4
  %78 = sext i32 %77 to i64
  %79 = getelementptr inbounds [256 x [256 x i8]], ptr @mul8table, i64 0, i64 %78
  %80 = load i32, ptr %24, align 4
  %81 = sext i32 %80 to i64
  %82 = getelementptr inbounds [256 x i8], ptr %79, i64 0, i64 %81
  %83 = load i8, ptr %82, align 1
  %84 = zext i8 %83 to i32
  store i32 %84, ptr %24, align 4
  br label %85

85:                                               ; preds = %60
  br label %86

86:                                               ; preds = %85, %56
  br label %87

87:                                               ; preds = %86, %55
  %88 = load i32, ptr %15, align 4
  %89 = mul nsw i32 %88, 4
  %90 = load i32, ptr %25, align 4
  %91 = sub nsw i32 %90, %89
  store i32 %91, ptr %25, align 4
  %92 = load ptr, ptr %12, align 8
  %93 = icmp ne ptr %92, null
  br i1 %93, label %94, label %281

94:                                               ; preds = %87
  %95 = load i32, ptr %13, align 4
  %96 = load ptr, ptr %12, align 8
  %97 = sext i32 %95 to i64
  %98 = getelementptr inbounds i8, ptr %96, i64 %97
  store ptr %98, ptr %12, align 8
  %99 = load i32, ptr %15, align 4
  %100 = load i32, ptr %14, align 4
  %101 = sub nsw i32 %100, %99
  store i32 %101, ptr %14, align 4
  br label %102

102:                                              ; preds = %276, %94
  %103 = load i32, ptr %15, align 4
  store i32 %103, ptr %27, align 4
  br label %104

104:                                              ; preds = %259, %102
  %105 = load ptr, ptr %12, align 8
  %106 = getelementptr inbounds i8, ptr %105, i32 1
  store ptr %106, ptr %12, align 8
  %107 = load i8, ptr %105, align 1
  %108 = zext i8 %107 to i32
  store i32 %108, ptr %33, align 4
  %109 = load i32, ptr %33, align 4
  %110 = icmp sgt i32 %109, 0
  br i1 %110, label %111, label %254

111:                                              ; preds = %104
  %112 = load i32, ptr %33, align 4
  %113 = icmp eq i32 %112, 255
  br i1 %113, label %114, label %119

114:                                              ; preds = %111
  %115 = load i32, ptr %17, align 4
  %116 = shl i32 %115, 8
  %117 = load ptr, ptr %26, align 8
  %118 = getelementptr inbounds i32, ptr %117, i64 0
  store i32 %116, ptr %118, align 4
  br label %253

119:                                              ; preds = %111
  %120 = load i32, ptr %33, align 4
  %121 = sub nsw i32 255, %120
  store i32 %121, ptr %32, align 4
  store i32 255, ptr %28, align 4
  %122 = load i32, ptr %32, align 4
  %123 = sext i32 %122 to i64
  %124 = getelementptr inbounds [256 x [256 x i8]], ptr @mul8table, i64 0, i64 %123
  %125 = load i32, ptr %28, align 4
  %126 = sext i32 %125 to i64
  %127 = getelementptr inbounds [256 x i8], ptr %124, i64 0, i64 %126
  %128 = load i8, ptr %127, align 1
  %129 = zext i8 %128 to i32
  store i32 %129, ptr %28, align 4
  %130 = load i32, ptr %28, align 4
  store i32 %130, ptr %32, align 4
  %131 = load i32, ptr %33, align 4
  %132 = sext i32 %131 to i64
  %133 = getelementptr inbounds [256 x [256 x i8]], ptr @mul8table, i64 0, i64 %132
  %134 = load i32, ptr %21, align 4
  %135 = sext i32 %134 to i64
  %136 = getelementptr inbounds [256 x i8], ptr %133, i64 0, i64 %135
  %137 = load i8, ptr %136, align 1
  %138 = zext i8 %137 to i32
  %139 = load i32, ptr %28, align 4
  %140 = add nsw i32 %139, %138
  store i32 %140, ptr %28, align 4
  br label %141

141:                                              ; preds = %119
  %142 = load ptr, ptr %26, align 8
  %143 = getelementptr inbounds i32, ptr %142, i64 0
  %144 = load i32, ptr %143, align 4
  store i32 %144, ptr %34, align 4
  br label %145

145:                                              ; preds = %141
  %146 = load i32, ptr %34, align 4
  %147 = ashr i32 %146, 8
  %148 = and i32 %147, 255
  store i32 %148, ptr %31, align 4
  %149 = load i32, ptr %34, align 4
  %150 = ashr i32 %149, 16
  %151 = and i32 %150, 255
  store i32 %151, ptr %30, align 4
  %152 = load i32, ptr %34, align 4
  %153 = ashr i32 %152, 24
  %154 = and i32 %153, 255
  store i32 %154, ptr %29, align 4
  br label %155

155:                                              ; preds = %145
  br label %156

156:                                              ; preds = %155
  br label %157

157:                                              ; preds = %156
  %158 = load i32, ptr %32, align 4
  %159 = sext i32 %158 to i64
  %160 = getelementptr inbounds [256 x [256 x i8]], ptr @mul8table, i64 0, i64 %159
  %161 = load i32, ptr %29, align 4
  %162 = sext i32 %161 to i64
  %163 = getelementptr inbounds [256 x i8], ptr %160, i64 0, i64 %162
  %164 = load i8, ptr %163, align 1
  %165 = zext i8 %164 to i32
  %166 = load i32, ptr %33, align 4
  %167 = sext i32 %166 to i64
  %168 = getelementptr inbounds [256 x [256 x i8]], ptr @mul8table, i64 0, i64 %167
  %169 = load i32, ptr %22, align 4
  %170 = sext i32 %169 to i64
  %171 = getelementptr inbounds [256 x i8], ptr %168, i64 0, i64 %170
  %172 = load i8, ptr %171, align 1
  %173 = zext i8 %172 to i32
  %174 = add nsw i32 %165, %173
  store i32 %174, ptr %29, align 4
  %175 = load i32, ptr %32, align 4
  %176 = sext i32 %175 to i64
  %177 = getelementptr inbounds [256 x [256 x i8]], ptr @mul8table, i64 0, i64 %176
  %178 = load i32, ptr %30, align 4
  %179 = sext i32 %178 to i64
  %180 = getelementptr inbounds [256 x i8], ptr %177, i64 0, i64 %179
  %181 = load i8, ptr %180, align 1
  %182 = zext i8 %181 to i32
  %183 = load i32, ptr %33, align 4
  %184 = sext i32 %183 to i64
  %185 = getelementptr inbounds [256 x [256 x i8]], ptr @mul8table, i64 0, i64 %184
  %186 = load i32, ptr %23, align 4
  %187 = sext i32 %186 to i64
  %188 = getelementptr inbounds [256 x i8], ptr %185, i64 0, i64 %187
  %189 = load i8, ptr %188, align 1
  %190 = zext i8 %189 to i32
  %191 = add nsw i32 %182, %190
  store i32 %191, ptr %30, align 4
  %192 = load i32, ptr %32, align 4
  %193 = sext i32 %192 to i64
  %194 = getelementptr inbounds [256 x [256 x i8]], ptr @mul8table, i64 0, i64 %193
  %195 = load i32, ptr %31, align 4
  %196 = sext i32 %195 to i64
  %197 = getelementptr inbounds [256 x i8], ptr %194, i64 0, i64 %196
  %198 = load i8, ptr %197, align 1
  %199 = zext i8 %198 to i32
  %200 = load i32, ptr %33, align 4
  %201 = sext i32 %200 to i64
  %202 = getelementptr inbounds [256 x [256 x i8]], ptr @mul8table, i64 0, i64 %201
  %203 = load i32, ptr %24, align 4
  %204 = sext i32 %203 to i64
  %205 = getelementptr inbounds [256 x i8], ptr %202, i64 0, i64 %204
  %206 = load i8, ptr %205, align 1
  %207 = zext i8 %206 to i32
  %208 = add nsw i32 %199, %207
  store i32 %208, ptr %31, align 4
  br label %209

209:                                              ; preds = %157
  %210 = load i32, ptr %28, align 4
  %211 = icmp ne i32 %210, 0
  br i1 %211, label %212, label %242

212:                                              ; preds = %209
  %213 = load i32, ptr %28, align 4
  %214 = icmp slt i32 %213, 255
  br i1 %214, label %215, label %242

215:                                              ; preds = %212
  br label %216

216:                                              ; preds = %215
  %217 = load i32, ptr %28, align 4
  %218 = sext i32 %217 to i64
  %219 = getelementptr inbounds [256 x [256 x i8]], ptr @div8table, i64 0, i64 %218
  %220 = load i32, ptr %29, align 4
  %221 = sext i32 %220 to i64
  %222 = getelementptr inbounds [256 x i8], ptr %219, i64 0, i64 %221
  %223 = load i8, ptr %222, align 1
  %224 = zext i8 %223 to i32
  store i32 %224, ptr %29, align 4
  %225 = load i32, ptr %28, align 4
  %226 = sext i32 %225 to i64
  %227 = getelementptr inbounds [256 x [256 x i8]], ptr @div8table, i64 0, i64 %226
  %228 = load i32, ptr %30, align 4
  %229 = sext i32 %228 to i64
  %230 = getelementptr inbounds [256 x i8], ptr %227, i64 0, i64 %229
  %231 = load i8, ptr %230, align 1
  %232 = zext i8 %231 to i32
  store i32 %232, ptr %30, align 4
  %233 = load i32, ptr %28, align 4
  %234 = sext i32 %233 to i64
  %235 = getelementptr inbounds [256 x [256 x i8]], ptr @div8table, i64 0, i64 %234
  %236 = load i32, ptr %31, align 4
  %237 = sext i32 %236 to i64
  %238 = getelementptr inbounds [256 x i8], ptr %235, i64 0, i64 %237
  %239 = load i8, ptr %238, align 1
  %240 = zext i8 %239 to i32
  store i32 %240, ptr %31, align 4
  br label %241

241:                                              ; preds = %216
  br label %242

242:                                              ; preds = %241, %212, %209
  %243 = load i32, ptr %29, align 4
  %244 = shl i32 %243, 8
  %245 = load i32, ptr %30, align 4
  %246 = or i32 %244, %245
  %247 = shl i32 %246, 8
  %248 = load i32, ptr %31, align 4
  %249 = or i32 %247, %248
  %250 = shl i32 %249, 8
  %251 = load ptr, ptr %26, align 8
  %252 = getelementptr inbounds i32, ptr %251, i64 0
  store i32 %250, ptr %252, align 4
  br label %253

253:                                              ; preds = %242, %114
  br label %254

254:                                              ; preds = %253, %104
  %255 = load ptr, ptr %26, align 8
  %256 = ptrtoint ptr %255 to i64
  %257 = add nsw i64 %256, 4
  %258 = inttoptr i64 %257 to ptr
  store ptr %258, ptr %26, align 8
  br label %259

259:                                              ; preds = %254
  %260 = load i32, ptr %27, align 4
  %261 = add nsw i32 %260, -1
  store i32 %261, ptr %27, align 4
  %262 = icmp sgt i32 %261, 0
  br i1 %262, label %104, label %263, !llvm.loop !37

263:                                              ; preds = %259
  %264 = load ptr, ptr %26, align 8
  %265 = ptrtoint ptr %264 to i64
  %266 = load i32, ptr %25, align 4
  %267 = sext i32 %266 to i64
  %268 = add nsw i64 %265, %267
  %269 = inttoptr i64 %268 to ptr
  store ptr %269, ptr %26, align 8
  %270 = load ptr, ptr %12, align 8
  %271 = ptrtoint ptr %270 to i64
  %272 = load i32, ptr %14, align 4
  %273 = sext i32 %272 to i64
  %274 = add nsw i64 %271, %273
  %275 = inttoptr i64 %274 to ptr
  store ptr %275, ptr %12, align 8
  br label %276

276:                                              ; preds = %263
  %277 = load i32, ptr %16, align 4
  %278 = add nsw i32 %277, -1
  store i32 %278, ptr %16, align 4
  %279 = icmp sgt i32 %278, 0
  br i1 %279, label %102, label %280, !llvm.loop !38

280:                                              ; preds = %276
  br label %309

281:                                              ; preds = %87
  br label %282

282:                                              ; preds = %304, %281
  %283 = load i32, ptr %15, align 4
  store i32 %283, ptr %35, align 4
  br label %284

284:                                              ; preds = %293, %282
  %285 = load i32, ptr %17, align 4
  %286 = shl i32 %285, 8
  %287 = load ptr, ptr %26, align 8
  %288 = getelementptr inbounds i32, ptr %287, i64 0
  store i32 %286, ptr %288, align 4
  %289 = load ptr, ptr %26, align 8
  %290 = ptrtoint ptr %289 to i64
  %291 = add nsw i64 %290, 4
  %292 = inttoptr i64 %291 to ptr
  store ptr %292, ptr %26, align 8
  br label %293

293:                                              ; preds = %284
  %294 = load i32, ptr %35, align 4
  %295 = add nsw i32 %294, -1
  store i32 %295, ptr %35, align 4
  %296 = icmp sgt i32 %295, 0
  br i1 %296, label %284, label %297, !llvm.loop !39

297:                                              ; preds = %293
  %298 = load ptr, ptr %26, align 8
  %299 = ptrtoint ptr %298 to i64
  %300 = load i32, ptr %25, align 4
  %301 = sext i32 %300 to i64
  %302 = add nsw i64 %299, %301
  %303 = inttoptr i64 %302 to ptr
  store ptr %303, ptr %26, align 8
  br label %304

304:                                              ; preds = %297
  %305 = load i32, ptr %16, align 4
  %306 = add nsw i32 %305, -1
  store i32 %306, ptr %16, align 4
  %307 = icmp sgt i32 %306, 0
  br i1 %307, label %282, label %308, !llvm.loop !40

308:                                              ; preds = %304
  br label %309

309:                                              ; preds = %308, %280
  ret void
}