; Function Attrs: nofree norecurse nosync nounwind memory(readwrite, inaccessiblemem: none) uwtable
define hidden void @IntRgbxSrcMaskFill(ptr noundef %0, ptr noundef %1, i32 noundef %2, i32 noundef %3, i32 noundef %4, i32 noundef %5, i32 noundef %6, ptr nocapture noundef readonly %7, ptr nocapture readnone %8, ptr nocapture readnone %9) #1 {
  %11 = getelementptr inbounds i8, ptr %7, i64 32
  %12 = load i32, ptr %11, align 8
  %13 = and i32 %6, 255
  %14 = lshr i32 %6, 8
  %15 = and i32 %14, 255
  %16 = lshr i32 %6, 16
  %17 = and i32 %16, 255
  %18 = lshr i32 %6, 24
  %19 = icmp ult i32 %6, 16777216
  br i1 %19, label %35, label %20

20:                                               ; preds = %10
  %.not = icmp eq i32 %18, 255
  br i1 %.not, label %35, label %21

21:                                               ; preds = %20
  %22 = zext nneg i32 %18 to i64
  %23 = zext nneg i32 %17 to i64
  %24 = getelementptr inbounds [256 x [256 x i8]], ptr @mul8table, i64 0, i64 %22, i64 %23
  %25 = load i8, ptr %24, align 1
  %26 = zext i8 %25 to i32
  %27 = zext nneg i32 %15 to i64
  %28 = getelementptr inbounds [256 x [256 x i8]], ptr @mul8table, i64 0, i64 %22, i64 %27
  %29 = load i8, ptr %28, align 1
  %30 = zext i8 %29 to i32
  %31 = zext nneg i32 %13 to i64
  %32 = getelementptr inbounds [256 x [256 x i8]], ptr @mul8table, i64 0, i64 %22, i64 %31
  %33 = load i8, ptr %32, align 1
  %34 = zext i8 %33 to i32
  br label %35

35:                                               ; preds = %10, %20, %21
  %.089 = phi i32 [ %6, %21 ], [ %6, %20 ], [ 0, %10 ]
  %.088 = phi i32 [ %26, %21 ], [ %17, %20 ], [ 0, %10 ]
  %.087 = phi i32 [ %30, %21 ], [ %15, %20 ], [ 0, %10 ]
  %.086 = phi i32 [ %34, %21 ], [ %13, %20 ], [ 0, %10 ]
  %36 = shl nsw i32 %4, 2
  %37 = sub nsw i32 %12, %36
  %.not97 = icmp eq ptr %1, null
  br i1 %.not97, label %.preheader, label %40

.preheader:                                       ; preds = %35
  %38 = sext i32 %37 to i64
  %39 = shl i32 %.089, 8
  br label %130

40:                                               ; preds = %35
  %41 = sext i32 %2 to i64
  %42 = getelementptr inbounds i8, ptr %1, i64 %41
  %43 = sub nsw i32 %3, %4
  %44 = sext i32 %37 to i64
  %45 = zext nneg i32 %18 to i64
  %46 = zext nneg i32 %.088 to i64
  %47 = zext nneg i32 %.087 to i64
  %48 = zext nneg i32 %.086 to i64
  %49 = sext i32 %43 to i64
  br label %50

50:                                               ; preds = %122, %40
  %.084 = phi ptr [ %0, %40 ], [ %124, %122 ]
  %.078 = phi i32 [ %5, %40 ], [ %128, %122 ]
  %.077 = phi ptr [ %42, %40 ], [ %127, %122 ]
  br label %51

51:                                               ; preds = %116, %50
  %.185 = phi ptr [ %.084, %50 ], [ %119, %116 ]
  %.083 = phi i32 [ %4, %50 ], [ %120, %116 ]
  %.1 = phi ptr [ %.077, %50 ], [ %52, %116 ]
  %52 = getelementptr inbounds i8, ptr %.1, i64 1
  %53 = load i8, ptr %.1, align 1
  switch i8 %53, label %54 [
    i8 0, label %116
    i8 -1, label %.sink.split
  ]

54:                                               ; preds = %51
  %55 = xor i8 %53, -1
  %56 = zext i8 %55 to i64
  %57 = getelementptr inbounds [256 x [256 x i8]], ptr @mul8table, i64 0, i64 %56, i64 255
  %58 = load i8, ptr %57, align 1
  %59 = zext i8 %58 to i32
  %60 = zext i8 %53 to i64
  %61 = getelementptr inbounds [256 x [256 x i8]], ptr @mul8table, i64 0, i64 %60, i64 %45
  %62 = load i8, ptr %61, align 1
  %63 = zext i8 %62 to i32
  %64 = add nuw nsw i32 %63, %59
  %65 = load i32, ptr %.185, align 4
  %66 = lshr i32 %65, 8
  %67 = and i32 %66, 255
  %68 = lshr i32 %65, 16
  %69 = and i32 %68, 255
  %70 = lshr i32 %65, 24
  %71 = zext i8 %58 to i64
  %72 = zext nneg i32 %70 to i64
  %73 = getelementptr inbounds [256 x [256 x i8]], ptr @mul8table, i64 0, i64 %71, i64 %72
  %74 = load i8, ptr %73, align 1
  %75 = zext i8 %74 to i32
  %76 = getelementptr inbounds [256 x [256 x i8]], ptr @mul8table, i64 0, i64 %60, i64 %46
  %77 = load i8, ptr %76, align 1
  %78 = zext i8 %77 to i32
  %79 = add nuw nsw i32 %78, %75
  %80 = zext nneg i32 %69 to i64
  %81 = getelementptr inbounds [256 x [256 x i8]], ptr @mul8table, i64 0, i64 %71, i64 %80
  %82 = load i8, ptr %81, align 1
  %83 = zext i8 %82 to i32
  %84 = getelementptr inbounds [256 x [256 x i8]], ptr @mul8table, i64 0, i64 %60, i64 %47
  %85 = load i8, ptr %84, align 1
  %86 = zext i8 %85 to i32
  %87 = add nuw nsw i32 %86, %83
  %88 = zext nneg i32 %67 to i64
  %89 = getelementptr inbounds [256 x [256 x i8]], ptr @mul8table, i64 0, i64 %71, i64 %88
  %90 = load i8, ptr %89, align 1
  %91 = zext i8 %90 to i32
  %92 = getelementptr inbounds [256 x [256 x i8]], ptr @mul8table, i64 0, i64 %60, i64 %48
  %93 = load i8, ptr %92, align 1
  %94 = zext i8 %93 to i32
  %95 = add nuw nsw i32 %94, %91
  %96 = add nsw i32 %64, -1
  %or.cond = icmp ult i32 %96, 254
  br i1 %or.cond, label %97, label %111

97:                                               ; preds = %54
  %98 = zext nneg i32 %64 to i64
  %99 = zext nneg i32 %79 to i64
  %100 = getelementptr inbounds [256 x [256 x i8]], ptr @div8table, i64 0, i64 %98, i64 %99
  %101 = load i8, ptr %100, align 1
  %102 = zext i8 %101 to i32
  %103 = zext nneg i32 %87 to i64
  %104 = getelementptr inbounds [256 x [256 x i8]], ptr @div8table, i64 0, i64 %98, i64 %103
  %105 = load i8, ptr %104, align 1
  %106 = zext i8 %105 to i32
  %107 = zext nneg i32 %95 to i64
  %108 = getelementptr inbounds [256 x [256 x i8]], ptr @div8table, i64 0, i64 %98, i64 %107
  %109 = load i8, ptr %108, align 1
  %110 = zext i8 %109 to i32
  br label %111

111:                                              ; preds = %97, %54
  %.082 = phi i32 [ %102, %97 ], [ %79, %54 ]
  %.081 = phi i32 [ %106, %97 ], [ %87, %54 ]
  %.080 = phi i32 [ %110, %97 ], [ %95, %54 ]
  %112 = shl nuw nsw i32 %.082, 16
  %113 = shl nuw nsw i32 %.081, 8
  %114 = or i32 %113, %112
  %115 = or i32 %114, %.080
  br label %.sink.split

.sink.split:                                      ; preds = %51, %111
  %.sink.in = phi i32 [ %115, %111 ], [ %.089, %51 ]
  %.sink = shl i32 %.sink.in, 8
  store i32 %.sink, ptr %.185, align 4
  br label %116

116:                                              ; preds = %.sink.split, %51
  %117 = ptrtoint ptr %.185 to i64
  %118 = add nsw i64 %117, 4
  %119 = inttoptr i64 %118 to ptr
  %120 = add nsw i32 %.083, -1
  %121 = icmp sgt i32 %.083, 1
  br i1 %121, label %51, label %122, !llvm.loop !37

122:                                              ; preds = %116
  %123 = add nsw i64 %118, %44
  %124 = inttoptr i64 %123 to ptr
  %125 = ptrtoint ptr %52 to i64
  %126 = add nsw i64 %125, %49
  %127 = inttoptr i64 %126 to ptr
  %128 = add nsw i32 %.078, -1
  %129 = icmp sgt i32 %.078, 1
  br i1 %129, label %50, label %.loopexit, !llvm.loop !38

130:                                              ; preds = %.preheader, %137
  %.2 = phi ptr [ %139, %137 ], [ %0, %.preheader ]
  %.179 = phi i32 [ %140, %137 ], [ %5, %.preheader ]
  br label %131

131:                                              ; preds = %131, %130
  %.3 = phi ptr [ %.2, %130 ], [ %134, %131 ]
  %.0 = phi i32 [ %4, %130 ], [ %135, %131 ]
  store i32 %39, ptr %.3, align 4
  %132 = ptrtoint ptr %.3 to i64
  %133 = add nsw i64 %132, 4
  %134 = inttoptr i64 %133 to ptr
  %135 = add nsw i32 %.0, -1
  %136 = icmp sgt i32 %.0, 1
  br i1 %136, label %131, label %137, !llvm.loop !39

137:                                              ; preds = %131
  %138 = add nsw i64 %133, %38
  %139 = inttoptr i64 %138 to ptr
  %140 = add nsw i32 %.179, -1
  %141 = icmp sgt i32 %.179, 1
  br i1 %141, label %130, label %.loopexit, !llvm.loop !40

.loopexit:                                        ; preds = %122, %137
  ret void
}